#include <math.h>
#include <stdio.h>
#include <stdlib.h>
#include <string.h>

int main()
{
	int j,total=0;
	int year,month,day;
		scanf("%d%d%d",&year,&month,&day);
		for(j=1;j<month;j++)
		{
			if(j==1||j==3||j==5||j==7||j==8||j==10||j==12)
				total=total+31;
			if(j==4||j==6||j==9||j==11)
				total=total+30;
			if(j==2)
			{
				if((year%4==0&&year%100!=0)||year%400==0)
					total=total+29;
				else
					total=total+28;
			}
		}
			total=total+day;
			printf("%d\n",total);
			return 0;
		
}