; ModuleID = '11/132.c'
source_filename = "11/132.c"
target datalayout = "e-m:e-p270:32:32-p271:32:32-p272:64:64-i64:64-f80:128-n8:16:32:64-S128"
target triple = "x86_64-pc-linux-gnu"

@.str = private unnamed_addr constant [7 x i8] c"%d%d%d\00", align 1
@.str.1 = private unnamed_addr constant [4 x i8] c"%d\0A\00", align 1

; Function Attrs: noinline nounwind uwtable
define dso_local i32 @main() #0 {
  %1 = alloca i32, align 4
  %2 = alloca i32, align 4
  %3 = alloca i32, align 4
  %4 = alloca i32, align 4
  %5 = alloca i32, align 4
  %6 = alloca i32, align 4
  store i32 0, i32* %1, align 4
  store i32 0, i32* %3, align 4
  %7 = call i32 (i8*, ...) @__isoc99_scanf(i8* getelementptr inbounds ([7 x i8], [7 x i8]* @.str, i64 0, i64 0), i32* %4, i32* %5, i32* %6)
  store i32 1, i32* %2, align 4
  br label %8

8:                                                ; preds = %74, %0
  %9 = load i32, i32* %2, align 4
  %10 = load i32, i32* %5, align 4
  %11 = icmp slt i32 %9, %10
  br i1 %11, label %12, label %77

12:                                               ; preds = %8
  %13 = load i32, i32* %2, align 4
  %14 = icmp eq i32 %13, 1
  br i1 %14, label %33, label %15

15:                                               ; preds = %12
  %16 = load i32, i32* %2, align 4
  %17 = icmp eq i32 %16, 3
  br i1 %17, label %33, label %18

18:                                               ; preds = %15
  %19 = load i32, i32* %2, align 4
  %20 = icmp eq i32 %19, 5
  br i1 %20, label %33, label %21

21:                                               ; preds = %18
  %22 = load i32, i32* %2, align 4
  %23 = icmp eq i32 %22, 7
  br i1 %23, label %33, label %24

24:                                               ; preds = %21
  %25 = load i32, i32* %2, align 4
  %26 = icmp eq i32 %25, 8
  br i1 %26, label %33, label %27

27:                                               ; preds = %24
  %28 = load i32, i32* %2, align 4
  %29 = icmp eq i32 %28, 10
  br i1 %29, label %33, label %30

30:                                               ; preds = %27
  %31 = load i32, i32* %2, align 4
  %32 = icmp eq i32 %31, 12
  br i1 %32, label %33, label %36

33:                                               ; preds = %30, %27, %24, %21, %18, %15, %12
  %34 = load i32, i32* %3, align 4
  %35 = add nsw i32 %34, 31
  store i32 %35, i32* %3, align 4
  br label %36

36:                                               ; preds = %33, %30
  %37 = load i32, i32* %2, align 4
  %38 = icmp eq i32 %37, 4
  br i1 %38, label %48, label %39

39:                                               ; preds = %36
  %40 = load i32, i32* %2, align 4
  %41 = icmp eq i32 %40, 6
  br i1 %41, label %48, label %42

42:                                               ; preds = %39
  %43 = load i32, i32* %2, align 4
  %44 = icmp eq i32 %43, 9
  br i1 %44, label %48, label %45

45:                                               ; preds = %42
  %46 = load i32, i32* %2, align 4
  %47 = icmp eq i32 %46, 11
  br i1 %47, label %48, label %51

48:                                               ; preds = %45, %42, %39, %36
  %49 = load i32, i32* %3, align 4
  %50 = add nsw i32 %49, 30
  store i32 %50, i32* %3, align 4
  br label %51

51:                                               ; preds = %48, %45
  %52 = load i32, i32* %2, align 4
  %53 = icmp eq i32 %52, 2
  br i1 %53, label %54, label %73

54:                                               ; preds = %51
  %55 = load i32, i32* %4, align 4
  %56 = srem i32 %55, 4
  %57 = icmp eq i32 %56, 0
  br i1 %57, label %58, label %62

58:                                               ; preds = %54
  %59 = load i32, i32* %4, align 4
  %60 = srem i32 %59, 100
  %61 = icmp ne i32 %60, 0
  br i1 %61, label %66, label %62

62:                                               ; preds = %58, %54
  %63 = load i32, i32* %4, align 4
  %64 = srem i32 %63, 400
  %65 = icmp eq i32 %64, 0
  br i1 %65, label %66, label %69

66:                                               ; preds = %62, %58
  %67 = load i32, i32* %3, align 4
  %68 = add nsw i32 %67, 29
  store i32 %68, i32* %3, align 4
  br label %72

69:                                               ; preds = %62
  %70 = load i32, i32* %3, align 4
  %71 = add nsw i32 %70, 28
  store i32 %71, i32* %3, align 4
  br label %72

72:                                               ; preds = %69, %66
  br label %73

73:                                               ; preds = %72, %51
  br label %74

74:                                               ; preds = %73
  %75 = load i32, i32* %2, align 4
  %76 = add nsw i32 %75, 1
  store i32 %76, i32* %2, align 4
  br label %8

77:                                               ; preds = %8
  %78 = load i32, i32* %3, align 4
  %79 = load i32, i32* %6, align 4
  %80 = add nsw i32 %78, %79
  store i32 %80, i32* %3, align 4
  %81 = load i32, i32* %3, align 4
  %82 = call i32 (i8*, ...) @printf(i8* getelementptr inbounds ([4 x i8], [4 x i8]* @.str.1, i64 0, i64 0), i32 %81)
  ret i32 0
}

declare dso_local i32 @__isoc99_scanf(i8*, ...) #1

declare dso_local i32 @printf(i8*, ...) #1


!llvm.module.flags = !{!0}
!llvm.ident = !{!1}

!0 = !{i32 1, !"wchar_size", i32 4}
!1 = !{!"clang version 10.0.0-4ubuntu1 "}
